; Function Attrs: mustprogress uwtable
define hidden void @_ZN5ceres8internal17CUDADenseCholesky6CreateERKNS0_12LinearSolver7OptionsE(ptr dead_on_unwind noalias nocapture writable writeonly sret(%"class.std::unique_ptr.43") align 8 %0, ptr nocapture noundef nonnull readonly align 8 dereferenceable(128) %1) local_unnamed_addr #3 align 2 personality ptr @__gxx_personality_v0 {
  %3 = getelementptr inbounds i8, ptr %1, i64 12
  %4 = load i32, ptr %3, align 4
  %.not = icmp eq i32 %4, 2
  br i1 %.not, label %5, label %28

5:                                                ; preds = %2
  %6 = getelementptr inbounds i8, ptr %1, i64 120
  %7 = load ptr, ptr %6, align 8
  %8 = icmp eq ptr %7, null
  br i1 %8, label %28, label %9

9:                                                ; preds = %5
  %10 = getelementptr inbounds i8, ptr %7, i64 288
  %11 = load i8, ptr %10, align 8
  %12 = and i8 %11, 1
  %.not5 = icmp eq i8 %12, 0
  br i1 %.not5, label %28, label %13

13:                                               ; preds = %9
  %14 = tail call noalias noundef nonnull dereferenceable(128) ptr @_Znwm(i64 noundef 128) #24
  store ptr getelementptr inbounds ({ [6 x ptr] }, ptr @_ZTVN5ceres8internal17CUDADenseCholeskyE, i64 0, i32 0, i64 2), ptr %14, align 8
  %15 = getelementptr inbounds i8, ptr %14, i64 8
  store ptr %7, ptr %15, align 8
  %16 = getelementptr inbounds i8, ptr %14, i64 16
  %17 = getelementptr inbounds i8, ptr %14, i64 40
  tail call void @llvm.memset.p0.i64(ptr noundef nonnull align 8 dereferenceable(24) %16, i8 0, i64 24, i1 false)
  store ptr %7, ptr %17, align 8
  %18 = getelementptr inbounds i8, ptr %14, i64 48
  %19 = getelementptr inbounds i8, ptr %14, i64 64
  tail call void @llvm.memset.p0.i64(ptr noundef nonnull align 8 dereferenceable(16) %18, i8 0, i64 16, i1 false)
  store ptr %7, ptr %19, align 8
  %20 = getelementptr inbounds i8, ptr %14, i64 72
  %21 = getelementptr inbounds i8, ptr %14, i64 88
  tail call void @llvm.memset.p0.i64(ptr noundef nonnull align 8 dereferenceable(16) %20, i8 0, i64 16, i1 false)
  store ptr %7, ptr %21, align 8
  %22 = getelementptr inbounds i8, ptr %14, i64 96
  %23 = getelementptr inbounds i8, ptr %14, i64 112
  tail call void @llvm.memset.p0.i64(ptr noundef nonnull align 8 dereferenceable(16) %22, i8 0, i64 16, i1 false)
  store ptr %7, ptr %23, align 8
  invoke void @_ZN5ceres8internal10CudaBufferIiE7ReserveEm(ptr noundef nonnull align 8 dereferenceable(24) %22, i64 noundef 1)
          to label %26 unwind label %.body

.body:                                            ; preds = %13
  %24 = landingpad { ptr, i32 }
          cleanup
  %25 = getelementptr inbounds i8, ptr %14, i64 24
  tail call void @_ZN5ceres8internal10CudaBufferIdED2Ev(ptr noundef nonnull align 8 dereferenceable(24) %20) #26
  tail call void @_ZN5ceres8internal10CudaBufferIdED2Ev(ptr noundef nonnull align 8 dereferenceable(24) %18) #26
  tail call void @_ZN5ceres8internal10CudaBufferIdED2Ev(ptr noundef nonnull align 8 dereferenceable(24) %25) #26
  tail call void @_ZdlPv(ptr noundef nonnull %14) #25
  resume { ptr, i32 } %24

26:                                               ; preds = %13
  %27 = getelementptr inbounds i8, ptr %14, i64 120
  store i32 3, ptr %27, align 8
  br label %28

28:                                               ; preds = %2, %5, %9, %26
  %storemerge = phi ptr [ %14, %26 ], [ null, %9 ], [ null, %5 ], [ null, %2 ]
  store ptr %storemerge, ptr %0, align 8
  ret void
}